target datalayout = "e-m:e-p270:32:32-p271:32:32-p272:64:64-i64:64-i128:128-f80:128-n8:16:32:64-S128"
target triple = "x86_64-pc-linux-gnu"

%struct.Fra_Lcr_t_ = type { ptr, ptr, ptr, ptr, ptr, ptr, i32, i32, i32, i32, i32, i32, i32, i32, i32, i32, i64, i64, i64, i64, i64, i64 }

@.str = private unnamed_addr constant [58 x i8] c"Iterations = %d.  LitBeg = %d.  LitEnd = %d. (%6.2f %%).\0A\00", align 1
@.str.1 = private unnamed_addr constant [84 x i8] c"NBeg = %d. NEnd = %d. (Gain = %6.2f %%).  RBeg = %d. REnd = %d. (Gain = %6.2f %%).\0A\00", align 1
@.str.2 = private unnamed_addr constant [5 x i8] c"%s =\00", align 1
@.str.3 = private unnamed_addr constant [17 x i8] c"AIG simulation  \00", align 1
@.str.4 = private unnamed_addr constant [11 x i8] c"%9.2f sec\0A\00", align 1
@.str.5 = private unnamed_addr constant [17 x i8] c"AIG partitioning\00", align 1
@.str.6 = private unnamed_addr constant [17 x i8] c"AIG rebuiding   \00", align 1
@.str.7 = private unnamed_addr constant [17 x i8] c"FRAIGing        \00", align 1
@.str.8 = private unnamed_addr constant [17 x i8] c"AIG updating    \00", align 1
@.str.9 = private unnamed_addr constant [17 x i8] c"TOTAL RUNTIME   \00", align 1

; Function Attrs: nounwind uwtable
define void @Lcr_ManPrint(ptr noundef %0) #0 {
  %2 = alloca ptr, align 8
  store ptr %0, ptr %2, align 8
  %3 = load ptr, ptr %2, align 8
  %4 = getelementptr inbounds %struct.Fra_Lcr_t_, ptr %3, i32 0, i32 9
  %5 = load i32, ptr %4, align 4
  %6 = load ptr, ptr %2, align 8
  %7 = getelementptr inbounds %struct.Fra_Lcr_t_, ptr %6, i32 0, i32 10
  %8 = load i32, ptr %7, align 8
  %9 = load ptr, ptr %2, align 8
  %10 = getelementptr inbounds %struct.Fra_Lcr_t_, ptr %9, i32 0, i32 11
  %11 = load i32, ptr %10, align 4
  %12 = load ptr, ptr %2, align 8
  %13 = getelementptr inbounds %struct.Fra_Lcr_t_, ptr %12, i32 0, i32 11
  %14 = load i32, ptr %13, align 4
  %15 = sitofp i32 %14 to double
  %16 = fmul double 1.000000e+02, %15
  %17 = load ptr, ptr %2, align 8
  %18 = getelementptr inbounds %struct.Fra_Lcr_t_, ptr %17, i32 0, i32 10
  %19 = load i32, ptr %18, align 8
  %20 = sitofp i32 %19 to double
  %21 = fdiv double %16, %20
  %22 = call i32 (ptr, ...) @printf(ptr noundef @.str, i32 noundef %5, i32 noundef %8, i32 noundef %11, double noundef %21)
  %23 = load ptr, ptr %2, align 8
  %24 = getelementptr inbounds %struct.Fra_Lcr_t_, ptr %23, i32 0, i32 12
  %25 = load i32, ptr %24, align 8
  %26 = load ptr, ptr %2, align 8
  %27 = getelementptr inbounds %struct.Fra_Lcr_t_, ptr %26, i32 0, i32 13
  %28 = load i32, ptr %27, align 4
  %29 = load ptr, ptr %2, align 8
  %30 = getelementptr inbounds %struct.Fra_Lcr_t_, ptr %29, i32 0, i32 12
  %31 = load i32, ptr %30, align 8
  %32 = load ptr, ptr %2, align 8
  %33 = getelementptr inbounds %struct.Fra_Lcr_t_, ptr %32, i32 0, i32 13
  %34 = load i32, ptr %33, align 4
  %35 = sub nsw i32 %31, %34
  %36 = sitofp i32 %35 to double
  %37 = fmul double 1.000000e+02, %36
  %38 = load ptr, ptr %2, align 8
  %39 = getelementptr inbounds %struct.Fra_Lcr_t_, ptr %38, i32 0, i32 12
  %40 = load i32, ptr %39, align 8
  %41 = sitofp i32 %40 to double
  %42 = fdiv double %37, %41
  %43 = load ptr, ptr %2, align 8
  %44 = getelementptr inbounds %struct.Fra_Lcr_t_, ptr %43, i32 0, i32 14
  %45 = load i32, ptr %44, align 8
  %46 = load ptr, ptr %2, align 8
  %47 = getelementptr inbounds %struct.Fra_Lcr_t_, ptr %46, i32 0, i32 15
  %48 = load i32, ptr %47, align 4
  %49 = load ptr, ptr %2, align 8
  %50 = getelementptr inbounds %struct.Fra_Lcr_t_, ptr %49, i32 0, i32 14
  %51 = load i32, ptr %50, align 8
  %52 = load ptr, ptr %2, align 8
  %53 = getelementptr inbounds %struct.Fra_Lcr_t_, ptr %52, i32 0, i32 15
  %54 = load i32, ptr %53, align 4
  %55 = sub nsw i32 %51, %54
  %56 = sitofp i32 %55 to double
  %57 = fmul double 1.000000e+02, %56
  %58 = load ptr, ptr %2, align 8
  %59 = getelementptr inbounds %struct.Fra_Lcr_t_, ptr %58, i32 0, i32 14
  %60 = load i32, ptr %59, align 8
  %61 = sitofp i32 %60 to double
  %62 = fdiv double %57, %61
  %63 = call i32 (ptr, ...) @printf(ptr noundef @.str.1, i32 noundef %25, i32 noundef %28, double noundef %42, i32 noundef %45, i32 noundef %48, double noundef %62)
  call void (i32, ptr, ...) @Abc_Print(i32 noundef 1, ptr noundef @.str.2, ptr noundef @.str.3)
  %64 = load ptr, ptr %2, align 8
  %65 = getelementptr inbounds %struct.Fra_Lcr_t_, ptr %64, i32 0, i32 16
  %66 = load i64, ptr %65, align 8
  %67 = sitofp i64 %66 to double
  %68 = fmul double 1.000000e+00, %67
  %69 = fdiv double %68, 1.000000e+06
  call void (i32, ptr, ...) @Abc_Print(i32 noundef 1, ptr noundef @.str.4, double noundef %69)
  call void (i32, ptr, ...) @Abc_Print(i32 noundef 1, ptr noundef @.str.2, ptr noundef @.str.5)
  %70 = load ptr, ptr %2, align 8
  %71 = getelementptr inbounds %struct.Fra_Lcr_t_, ptr %70, i32 0, i32 17
  %72 = load i64, ptr %71, align 8
  %73 = sitofp i64 %72 to double
  %74 = fmul double 1.000000e+00, %73
  %75 = fdiv double %74, 1.000000e+06
  call void (i32, ptr, ...) @Abc_Print(i32 noundef 1, ptr noundef @.str.4, double noundef %75)
  call void (i32, ptr, ...) @Abc_Print(i32 noundef 1, ptr noundef @.str.2, ptr noundef @.str.6)
  %76 = load ptr, ptr %2, align 8
  %77 = getelementptr inbounds %struct.Fra_Lcr_t_, ptr %76, i32 0, i32 18
  %78 = load i64, ptr %77, align 8
  %79 = sitofp i64 %78 to double
  %80 = fmul double 1.000000e+00, %79
  %81 = fdiv double %80, 1.000000e+06
  call void (i32, ptr, ...) @Abc_Print(i32 noundef 1, ptr noundef @.str.4, double noundef %81)
  call void (i32, ptr, ...) @Abc_Print(i32 noundef 1, ptr noundef @.str.2, ptr noundef @.str.7)
  %82 = load ptr, ptr %2, align 8
  %83 = getelementptr inbounds %struct.Fra_Lcr_t_, ptr %82, i32 0, i32 19
  %84 = load i64, ptr %83, align 8
  %85 = sitofp i64 %84 to double
  %86 = fmul double 1.000000e+00, %85
  %87 = fdiv double %86, 1.000000e+06
  call void (i32, ptr, ...) @Abc_Print(i32 noundef 1, ptr noundef @.str.4, double noundef %87)
  call void (i32, ptr, ...) @Abc_Print(i32 noundef 1, ptr noundef @.str.2, ptr noundef @.str.8)
  %88 = load ptr, ptr %2, align 8
  %89 = getelementptr inbounds %struct.Fra_Lcr_t_, ptr %88, i32 0, i32 20
  %90 = load i64, ptr %89, align 8
  %91 = sitofp i64 %90 to double
  %92 = fmul double 1.000000e+00, %91
  %93 = fdiv double %92, 1.000000e+06
  call void (i32, ptr, ...) @Abc_Print(i32 noundef 1, ptr noundef @.str.4, double noundef %93)
  call void (i32, ptr, ...) @Abc_Print(i32 noundef 1, ptr noundef @.str.2, ptr noundef @.str.9)
  %94 = load ptr, ptr %2, align 8
  %95 = getelementptr inbounds %struct.Fra_Lcr_t_, ptr %94, i32 0, i32 21
  %96 = load i64, ptr %95, align 8
  %97 = sitofp i64 %96 to double
  %98 = fmul double 1.000000e+00, %97
  %99 = fdiv double %98, 1.000000e+06
  call void (i32, ptr, ...) @Abc_Print(i32 noundef 1, ptr noundef @.str.4, double noundef %99)
  ret void
}