; Function Attrs: nounwind uwtable
define void @Lcr_ManPrint(ptr noundef readonly captures(none) %0) local_unnamed_addr #2 {
  %2 = getelementptr inbounds nuw i8, ptr %0, i64 60
  %3 = load i32, ptr %2, align 4
  %4 = getelementptr inbounds nuw i8, ptr %0, i64 64
  %5 = load i32, ptr %4, align 8
  %6 = getelementptr inbounds nuw i8, ptr %0, i64 68
  %7 = load i32, ptr %6, align 4
  %8 = sitofp i32 %7 to double
  %9 = fmul double %8, 1.000000e+02
  %10 = sitofp i32 %5 to double
  %11 = fdiv double %9, %10
  %12 = tail call i32 (ptr, ...) @printf(ptr noundef nonnull dereferenceable(1) @.str, i32 noundef %3, i32 noundef %5, i32 noundef %7, double noundef %11)
  %13 = getelementptr inbounds nuw i8, ptr %0, i64 72
  %14 = load i32, ptr %13, align 8
  %15 = getelementptr inbounds nuw i8, ptr %0, i64 76
  %16 = load i32, ptr %15, align 4
  %17 = sub nsw i32 %14, %16
  %18 = sitofp i32 %17 to double
  %19 = fmul double %18, 1.000000e+02
  %20 = sitofp i32 %14 to double
  %21 = fdiv double %19, %20
  %22 = getelementptr inbounds nuw i8, ptr %0, i64 80
  %23 = load i32, ptr %22, align 8
  %24 = getelementptr inbounds nuw i8, ptr %0, i64 84
  %25 = load i32, ptr %24, align 4
  %26 = sub nsw i32 %23, %25
  %27 = sitofp i32 %26 to double
  %28 = fmul double %27, 1.000000e+02
  %29 = sitofp i32 %23 to double
  %30 = fdiv double %28, %29
  %31 = tail call i32 (ptr, ...) @printf(ptr noundef nonnull dereferenceable(1) @.str.1, i32 noundef %14, i32 noundef %16, double noundef %21, i32 noundef %23, i32 noundef %25, double noundef %30)
  tail call void (i32, ptr, ...) @Abc_Print(i32 poison, ptr noundef nonnull @.str.2, ptr noundef nonnull @.str.3)
  %32 = getelementptr inbounds nuw i8, ptr %0, i64 88
  %33 = load i64, ptr %32, align 8
  %34 = sitofp i64 %33 to double
  %35 = fdiv double %34, 1.000000e+06
  tail call void (i32, ptr, ...) @Abc_Print(i32 poison, ptr noundef nonnull @.str.4, double noundef %35)
  tail call void (i32, ptr, ...) @Abc_Print(i32 poison, ptr noundef nonnull @.str.2, ptr noundef nonnull @.str.5)
  %36 = getelementptr inbounds nuw i8, ptr %0, i64 96
  %37 = load i64, ptr %36, align 8
  %38 = sitofp i64 %37 to double
  %39 = fdiv double %38, 1.000000e+06
  tail call void (i32, ptr, ...) @Abc_Print(i32 poison, ptr noundef nonnull @.str.4, double noundef %39)
  tail call void (i32, ptr, ...) @Abc_Print(i32 poison, ptr noundef nonnull @.str.2, ptr noundef nonnull @.str.6)
  %40 = getelementptr inbounds nuw i8, ptr %0, i64 104
  %41 = load i64, ptr %40, align 8
  %42 = sitofp i64 %41 to double
  %43 = fdiv double %42, 1.000000e+06
  tail call void (i32, ptr, ...) @Abc_Print(i32 poison, ptr noundef nonnull @.str.4, double noundef %43)
  tail call void (i32, ptr, ...) @Abc_Print(i32 poison, ptr noundef nonnull @.str.2, ptr noundef nonnull @.str.7)
  %44 = getelementptr inbounds nuw i8, ptr %0, i64 112
  %45 = load i64, ptr %44, align 8
  %46 = sitofp i64 %45 to double
  %47 = fdiv double %46, 1.000000e+06
  tail call void (i32, ptr, ...) @Abc_Print(i32 poison, ptr noundef nonnull @.str.4, double noundef %47)
  tail call void (i32, ptr, ...) @Abc_Print(i32 poison, ptr noundef nonnull @.str.2, ptr noundef nonnull @.str.8)
  %48 = getelementptr inbounds nuw i8, ptr %0, i64 120
  %49 = load i64, ptr %48, align 8
  %50 = sitofp i64 %49 to double
  %51 = fdiv double %50, 1.000000e+06
  tail call void (i32, ptr, ...) @Abc_Print(i32 poison, ptr noundef nonnull @.str.4, double noundef %51)
  tail call void (i32, ptr, ...) @Abc_Print(i32 poison, ptr noundef nonnull @.str.2, ptr noundef nonnull @.str.9)
  %52 = getelementptr inbounds nuw i8, ptr %0, i64 128
  %53 = load i64, ptr %52, align 8
  %54 = sitofp i64 %53 to double
  %55 = fdiv double %54, 1.000000e+06
  tail call void (i32, ptr, ...) @Abc_Print(i32 poison, ptr noundef nonnull @.str.4, double noundef %55)
  ret void
}